target datalayout = "e-m:e-p270:32:32-p271:32:32-p272:64:64-i64:64-i128:128-f80:128-n8:16:32:64-S128"
target triple = "x86_64-pc-linux-gnu"

; Function Attrs: inlinehint mustprogress nounwind uwtable
define linkonce_odr hidden noundef i32 @_ZN6google8protobuf8internal12ToCachedSizeEm(i64 noundef %0) #6 comdat {
  %2 = alloca i64, align 8
  store i64 %0, ptr %2, align 8, !tbaa !53
  %3 = load i64, ptr %2, align 8, !tbaa !53
  %4 = trunc i64 %3 to i32
  ret i32 %4
}

; Function Attrs: mustprogress uwtable
define hidden noundef i64 @_ZNK6google8protobuf7Message12ByteSizeLongEv(ptr noundef nonnull align 8 dereferenceable(16) %0) unnamed_addr #4 align 2 {
  %2 = alloca ptr, align 8
  %3 = alloca i64, align 8
  store ptr %0, ptr %2, align 8, !tbaa !3
  %4 = load ptr, ptr %2, align 8
  call void @llvm.lifetime.start.p0(i64 8, ptr %3) #3
  %5 = call noundef i64 @_ZN6google8protobuf8internal10WireFormat8ByteSizeERKNS0_7MessageE(ptr noundef nonnull align 8 dereferenceable(16) %4)
  store i64 %5, ptr %3, align 8, !tbaa !53
  %6 = load i64, ptr %3, align 8, !tbaa !53
  %7 = call noundef i32 @_ZN6google8protobuf8internal12ToCachedSizeEm(i64 noundef %6)
  %8 = load ptr, ptr %4, align 8, !tbaa !8
  %9 = getelementptr inbounds ptr, ptr %8, i64 16
  %10 = load ptr, ptr %9, align 8
  call void %10(ptr noundef nonnull align 8 dereferenceable(16) %4, i32 noundef %7)
  %11 = load i64, ptr %3, align 8, !tbaa !53
  call void @llvm.lifetime.end.p0(i64 8, ptr %3) #3
  ret i64 %11
}