; Function Attrs: mustprogress uwtable
define hidden noundef i64 @_ZNK6google8protobuf7Message12ByteSizeLongEv(ptr noundef nonnull align 8 dereferenceable(16) %0) unnamed_addr #3 align 2 {
  %2 = tail call noundef i64 @_ZN6google8protobuf8internal10WireFormat8ByteSizeERKNS0_7MessageE(ptr noundef nonnull align 8 dereferenceable(16) %0)
  %3 = trunc i64 %2 to i32
  %4 = load ptr, ptr %0, align 8, !tbaa !3
  %5 = getelementptr inbounds nuw i8, ptr %4, i64 128
  %6 = load ptr, ptr %5, align 8
  tail call void %6(ptr noundef nonnull align 8 dereferenceable(16) %0, i32 noundef %3)
  ret i64 %2
}